target datalayout = "e-m:e-p270:32:32-p271:32:32-p272:64:64-i64:64-i128:128-f80:128-n8:16:32:64-S128"
target triple = "x86_64-pc-linux-gnu"

%struct.Command = type { ptr, ptr }
%struct.CommandSet = type { i32, ptr, ptr }

@.str = private unnamed_addr constant [13 x i8] c"InvokeMethod\00", align 1
@InterfaceType_Commands = hidden global [1 x %struct.Command] [%struct.Command { ptr @invokeStatic, ptr @.str }], align 16
@.str.1 = private unnamed_addr constant [14 x i8] c"InterfaceType\00", align 1
@InterfaceType_CmdSet = hidden global %struct.CommandSet { i32 1, ptr @.str.1, ptr @InterfaceType_Commands }, align 8

; Function Attrs: nounwind uwtable
define internal zeroext i8 @invokeStatic(ptr noundef %0, ptr noundef %1) #0 {
  %3 = alloca ptr, align 8
  %4 = alloca ptr, align 8
  store ptr %0, ptr %3, align 8
  store ptr %1, ptr %4, align 8
  %5 = load ptr, ptr %3, align 8
  %6 = load ptr, ptr %4, align 8
  %7 = call zeroext i8 @sharedInvoke(ptr noundef %5, ptr noundef %6)
  ret i8 %7
}

declare zeroext i8 @sharedInvoke(ptr noundef, ptr noundef) #1


!llvm.module.flags = !{!0, !1, !2, !3, !4, !5}

!0 = !{i32 7, !"Dwarf Version", i32 5}
!1 = !{i32 2, !"Debug Info Version", i32 3}
!2 = !{i32 1, !"wchar_size", i32 4}
!3 = !{i32 8, !"PIC Level", i32 2}
!4 = !{i32 7, !"uwtable", i32 2}
!5 = !{i32 7, !"frame-pointer", i32 2}
